target datalayout = "e-m:e-p270:32:32-p271:32:32-p272:64:64-i64:64-i128:128-f80:128-n8:16:32:64-S128"
target triple = "x86_64-pc-linux-gnu"

%struct.rb_shape_tree_t = type { ptr, ptr, i32, ptr, i32 }
%struct.rb_shape = type { ptr, i64, i32, i32, i8, i8, i32, ptr }
%struct.RBasic = type { i64, i64 }

@rb_shape_tree_ptr = hidden global ptr null, align 8

; Function Attrs: inlinehint nounwind sspstrong uwtable
define internal i32 @get_shape_id_from_flags(i64 noundef %0) #1 {
  %2 = alloca i64, align 8
  store i64 %0, ptr %2, align 8, !tbaa !26
  %3 = load i64, ptr %2, align 8, !tbaa !26
  %4 = inttoptr i64 %3 to ptr
  %5 = getelementptr inbounds nuw %struct.RBasic, ptr %4, i32 0, i32 0
  %6 = load i64, ptr %5, align 8, !tbaa !44
  %7 = lshr i64 %6, 32
  %8 = and i64 4294967295, %7
  %9 = trunc i64 %8 to i32
  ret i32 %9
}

; Function Attrs: inlinehint nounwind sspstrong willreturn memory(none) uwtable
define internal zeroext i1 @RB_IMMEDIATE_P(i64 noundef %0) #3 {
  %2 = alloca i64, align 8
  store i64 %0, ptr %2, align 8, !tbaa !26
  %3 = load i64, ptr %2, align 8, !tbaa !26
  %4 = and i64 %3, 7
  %5 = icmp ne i64 %4, 0
  ret i1 %5
}

; Function Attrs: inlinehint nounwind sspstrong uwtable
define internal ptr @rb_current_shape_tree() #1 {
  %1 = load ptr, ptr @rb_shape_tree_ptr, align 8, !tbaa !15
  ret ptr %1
}

; Function Attrs: inlinehint nounwind sspstrong uwtable
define internal i32 @RBASIC_SHAPE_ID(i64 noundef %0) #1 {
  %2 = alloca i64, align 8
  store i64 %0, ptr %2, align 8, !tbaa !26
  %3 = load i64, ptr %2, align 8, !tbaa !26
  %4 = call i32 @get_shape_id_from_flags(i64 noundef %3)
  ret i32 %4
}

; Function Attrs: inlinehint nounwind sspstrong willreturn memory(none) uwtable
define internal zeroext i1 @RB_SPECIAL_CONST_P(i64 noundef %0) #3 {
  %2 = alloca i64, align 8
  store i64 %0, ptr %2, align 8, !tbaa !26
  %3 = load i64, ptr %2, align 8, !tbaa !26
  %4 = icmp eq i64 %3, 0
  br i1 %4, label %8, label %5

5:                                                ; preds = %1
  %6 = load i64, ptr %2, align 8, !tbaa !26
  %7 = call zeroext i1 @RB_IMMEDIATE_P(i64 noundef %6) #15
  br label %8

8:                                                ; preds = %5, %1
  %9 = phi i1 [ true, %1 ], [ %7, %5 ]
  ret i1 %9
}

; Function Attrs: nounwind sspstrong uwtable
define hidden ptr @rb_shape_get_shape_by_id(i32 noundef %0) #0 {
  %2 = alloca i32, align 4
  %3 = alloca ptr, align 8
  store i32 %0, ptr %2, align 4, !tbaa !21
  call void @llvm.lifetime.start.p0(i64 8, ptr %3) #14
  %4 = call ptr @rb_current_shape_tree()
  %5 = getelementptr inbounds nuw %struct.rb_shape_tree_t, ptr %4, i32 0, i32 0
  %6 = load ptr, ptr %5, align 8, !tbaa !17
  %7 = load i32, ptr %2, align 4, !tbaa !21
  %8 = zext i32 %7 to i64
  %9 = getelementptr %struct.rb_shape, ptr %6, i64 %8
  store ptr %9, ptr %3, align 8, !tbaa !16
  %10 = load ptr, ptr %3, align 8, !tbaa !16
  call void @llvm.lifetime.end.p0(i64 8, ptr %3) #14
  ret ptr %10
}

; Function Attrs: nounwind sspstrong uwtable
define hidden i32 @rb_shape_get_shape_id(i64 noundef %0) #0 {
  %2 = alloca i32, align 4
  %3 = alloca i64, align 8
  store i64 %0, ptr %3, align 8, !tbaa !26
  %4 = load i64, ptr %3, align 8, !tbaa !26
  %5 = call zeroext i1 @RB_SPECIAL_CONST_P(i64 noundef %4) #15
  br i1 %5, label %6, label %7

6:                                                ; preds = %1
  store i32 1, ptr %2, align 4
  br label %10

7:                                                ; preds = %1
  %8 = load i64, ptr %3, align 8, !tbaa !26
  %9 = call i32 @RBASIC_SHAPE_ID(i64 noundef %8)
  store i32 %9, ptr %2, align 4
  br label %10

10:                                               ; preds = %7, %6
  %11 = load i32, ptr %2, align 4
  ret i32 %11
}

; Function Attrs: nounwind sspstrong uwtable
define hidden ptr @rb_shape_get_shape(i64 noundef %0) #0 {
  %2 = alloca i64, align 8
  store i64 %0, ptr %2, align 8, !tbaa !26
  %3 = load i64, ptr %2, align 8, !tbaa !26
  %4 = call i32 @rb_shape_get_shape_id(i64 noundef %3)
  %5 = call ptr @rb_shape_get_shape_by_id(i32 noundef %4)
  ret ptr %5
}