; Function Attrs: mustprogress nofree norecurse nosync nounwind sspstrong willreturn memory(read, inaccessiblemem: none) uwtable
define hidden ptr @rb_shape_get_shape(i64 noundef %0) local_unnamed_addr #0 {
  %2 = icmp eq i64 %0, 0
  %3 = and i64 %0, 7
  %4 = icmp ne i64 %3, 0
  %5 = or i1 %2, %4
  br i1 %5, label %rb_shape_get_shape_id.exit, label %6

6:                                                ; preds = %1
  %7 = inttoptr i64 %0 to ptr
  %8 = load i64, ptr %7, align 8, !tbaa !24
  %9 = lshr i64 %8, 32
  br label %rb_shape_get_shape_id.exit

rb_shape_get_shape_id.exit:                       ; preds = %1, %6
  %.0.i = phi i64 [ %9, %6 ], [ 1, %1 ]
  %10 = load ptr, ptr @rb_shape_tree_ptr, align 8, !tbaa !7
  %11 = load ptr, ptr %10, align 8, !tbaa !16
  %12 = getelementptr %struct.rb_shape, ptr %11, i64 %.0.i
  ret ptr %12
}